target datalayout = "e-m:e-p270:32:32-p271:32:32-p272:64:64-i64:64-i128:128-f80:128-n8:16:32:64-S128"
target triple = "x86_64-pc-linux-gnu"

%struct.Rtm_Obj_t_ = type { ptr, i32, i32, i32, i32, [0 x ptr] }

; Function Attrs: inlinehint nounwind uwtable
define internal ptr @Rtm_ObjFanin(ptr noundef %0, i32 noundef %1) #5 {
  %3 = alloca ptr, align 8
  %4 = alloca i32, align 4
  store ptr %0, ptr %3, align 8, !tbaa !40
  store i32 %1, ptr %4, align 4, !tbaa !21
  %5 = load ptr, ptr %3, align 8, !tbaa !40
  %6 = getelementptr inbounds nuw %struct.Rtm_Obj_t_, ptr %5, i32 0, i32 5
  %7 = load i32, ptr %4, align 4, !tbaa !21
  %8 = mul nsw i32 2, %7
  %9 = sext i32 %8 to i64
  %10 = getelementptr inbounds [0 x ptr], ptr %6, i64 0, i64 %9
  %11 = load ptr, ptr %10, align 8, !tbaa !45
  ret ptr %11
}

; Function Attrs: nounwind uwtable
define void @Rtm_ObjMarkAutoBwd_rec(ptr noundef %0) #0 {
  %2 = alloca ptr, align 8
  %3 = alloca ptr, align 8
  %4 = alloca i32, align 4
  %5 = alloca i32, align 4
  store ptr %0, ptr %2, align 8, !tbaa !40
  call void @llvm.lifetime.start.p0(i64 8, ptr %3) #11
  call void @llvm.lifetime.start.p0(i64 4, ptr %4) #11
  %6 = load ptr, ptr %2, align 8, !tbaa !40
  %7 = getelementptr inbounds nuw %struct.Rtm_Obj_t_, ptr %6, i32 0, i32 1
  %8 = load i32, ptr %7, align 8
  %9 = lshr i32 %8, 4
  %10 = and i32 %9, 1
  %11 = zext i32 %10 to i64
  %12 = icmp ne i64 %11, 0
  br i1 %12, label %13, label %14

13:                                               ; preds = %1
  store i32 1, ptr %5, align 4
  br label %42

14:                                               ; preds = %1
  %15 = load ptr, ptr %2, align 8, !tbaa !40
  %16 = getelementptr inbounds nuw %struct.Rtm_Obj_t_, ptr %15, i32 0, i32 1
  %17 = load i32, ptr %16, align 8
  %18 = and i32 %17, -17
  %19 = or i32 %18, 16
  store i32 %19, ptr %16, align 8
  store i32 0, ptr %4, align 4, !tbaa !21
  br label %20

20:                                               ; preds = %38, %14
  %21 = load i32, ptr %4, align 4, !tbaa !21
  %22 = load ptr, ptr %2, align 8, !tbaa !40
  %23 = getelementptr inbounds nuw %struct.Rtm_Obj_t_, ptr %22, i32 0, i32 1
  %24 = load i32, ptr %23, align 8
  %25 = lshr i32 %24, 7
  %26 = and i32 %25, 255
  %27 = zext i32 %26 to i64
  %28 = trunc i64 %27 to i32
  %29 = icmp slt i32 %21, %28
  br i1 %29, label %30, label %34

30:                                               ; preds = %20
  %31 = load ptr, ptr %2, align 8, !tbaa !40
  %32 = load i32, ptr %4, align 4, !tbaa !21
  %33 = call ptr @Rtm_ObjFanin(ptr noundef %31, i32 noundef %32)
  store ptr %33, ptr %3, align 8, !tbaa !40
  br label %34

34:                                               ; preds = %30, %20
  %35 = phi i1 [ false, %20 ], [ true, %30 ]
  br i1 %35, label %36, label %41

36:                                               ; preds = %34
  %37 = load ptr, ptr %3, align 8, !tbaa !40
  call void @Rtm_ObjMarkAutoBwd_rec(ptr noundef %37)
  br label %38

38:                                               ; preds = %36
  %39 = load i32, ptr %4, align 4, !tbaa !21
  %40 = add nsw i32 %39, 1
  store i32 %40, ptr %4, align 4, !tbaa !21
  br label %20, !llvm.loop !61

41:                                               ; preds = %34
  store i32 0, ptr %5, align 4
  br label %42

42:                                               ; preds = %41, %13
  call void @llvm.lifetime.end.p0(i64 4, ptr %4) #11
  call void @llvm.lifetime.end.p0(i64 8, ptr %3) #11
  %43 = load i32, ptr %5, align 4
  switch i32 %43, label %45 [
    i32 0, label %44
    i32 1, label %44
  ]

44:                                               ; preds = %42, %42
  ret void

45:                                               ; preds = %42
  unreachable
}