; Function Attrs: nofree nosync nounwind memory(readwrite, inaccessiblemem: none) uwtable
define void @Rtm_ObjMarkAutoBwd_rec(ptr noundef captures(none) %0) local_unnamed_addr #11 {
  %2 = getelementptr inbounds nuw i8, ptr %0, i64 8
  %3 = load i32, ptr %2, align 8
  %4 = and i32 %3, 16
  %.not = icmp eq i32 %4, 0
  br i1 %.not, label %5, label %.critedge

5:                                                ; preds = %1
  %6 = or disjoint i32 %3, 16
  store i32 %6, ptr %2, align 8
  %7 = and i32 %3, 32640
  %.not8 = icmp eq i32 %7, 0
  br i1 %.not8, label %.critedge, label %.lr.ph

.lr.ph:                                           ; preds = %5
  %8 = getelementptr inbounds nuw i8, ptr %0, i64 24
  br label %9

9:                                                ; preds = %.lr.ph, %9
  %indvars.iv = phi i64 [ 0, %.lr.ph ], [ %indvars.iv.next, %9 ]
  %10 = shl nuw nsw i64 %indvars.iv, 1
  %11 = getelementptr inbounds nuw [0 x ptr], ptr %8, i64 0, i64 %10
  %12 = load ptr, ptr %11, align 8, !tbaa !34
  tail call void @Rtm_ObjMarkAutoBwd_rec(ptr noundef %12)
  %indvars.iv.next = add nuw nsw i64 %indvars.iv, 1
  %13 = load i32, ptr %2, align 8
  %14 = lshr i32 %13, 7
  %15 = and i32 %14, 255
  %16 = zext nneg i32 %15 to i64
  %17 = icmp samesign ult i64 %indvars.iv.next, %16
  br i1 %17, label %9, label %.critedge, !llvm.loop !57

.critedge:                                        ; preds = %9, %5, %1
  ret void
}